target datalayout = "e-m:e-p270:32:32-p271:32:32-p272:64:64-i64:64-i128:128-f80:128-n8:16:32:64-S128"
target triple = "x86_64-pc-linux-gnu"

%struct.jv = type { i8, i8, i16, i32, %union.anon }
%union.anon = type { ptr }
%struct.jq_state = type { ptr, ptr, ptr, ptr, ptr, %struct.jv, %struct.stack, i32, i32, i32, %struct.jv, %struct.jv, i32, i32, i32, i32, i32, %struct.jv, %struct.jv, %struct.jv, ptr, ptr, ptr, ptr, ptr, ptr }
%struct.stack = type { ptr, i32, i32 }
%struct.stack_pos = type { i32, i32 }
%struct.forkpoint = type { i32, i32, i32, i32, %struct.jv, ptr }

; Function Attrs: nounwind uwtable
define internal ptr @stack_block_next(ptr noundef %0, i32 noundef %1) #0 {
  %3 = alloca ptr, align 8
  %4 = alloca i32, align 4
  store ptr %0, ptr %3, align 8, !tbaa !22
  store i32 %1, ptr %4, align 4, !tbaa !21
  %5 = load ptr, ptr %3, align 8, !tbaa !22
  %6 = load i32, ptr %4, align 4, !tbaa !21
  %7 = call ptr @stack_block(ptr noundef %5, i32 noundef %6)
  %8 = getelementptr inbounds i32, ptr %7, i64 -1
  ret ptr %8
}

; Function Attrs: nounwind uwtable
define internal void @stack_reallocate(ptr noundef %0, i64 noundef %1) #0 {
  %3 = alloca ptr, align 8
  %4 = alloca i64, align 8
  %5 = alloca i32, align 4
  %6 = alloca ptr, align 8
  %7 = alloca i32, align 4
  %8 = alloca ptr, align 8
  store ptr %0, ptr %3, align 8, !tbaa !22
  store i64 %1, ptr %4, align 8, !tbaa !24
  call void @llvm.lifetime.start.p0(i64 4, ptr %5) #7
  %9 = load ptr, ptr %3, align 8, !tbaa !22
  %10 = getelementptr inbounds nuw %struct.stack, ptr %9, i32 0, i32 1
  %11 = load i32, ptr %10, align 8, !tbaa !27
  %12 = sub nsw i32 0, %11
  %13 = add nsw i32 %12, 8
  store i32 %13, ptr %5, align 4, !tbaa !21
  call void @llvm.lifetime.start.p0(i64 8, ptr %6) #7
  %14 = load ptr, ptr %3, align 8, !tbaa !22
  %15 = getelementptr inbounds nuw %struct.stack, ptr %14, i32 0, i32 0
  %16 = load ptr, ptr %15, align 8, !tbaa !28
  %17 = icmp ne ptr %16, null
  br i1 %17, label %18, label %26

18:                                               ; preds = %2
  %19 = load ptr, ptr %3, align 8, !tbaa !22
  %20 = getelementptr inbounds nuw %struct.stack, ptr %19, i32 0, i32 0
  %21 = load ptr, ptr %20, align 8, !tbaa !28
  %22 = load i32, ptr %5, align 4, !tbaa !21
  %23 = sext i32 %22 to i64
  %24 = sub i64 0, %23
  %25 = getelementptr inbounds i8, ptr %21, i64 %24
  br label %27

26:                                               ; preds = %2
  br label %27

27:                                               ; preds = %26, %18
  %28 = phi ptr [ %25, %18 ], [ null, %26 ]
  store ptr %28, ptr %6, align 8, !tbaa !100
  call void @llvm.lifetime.start.p0(i64 4, ptr %7) #7
  %29 = load i32, ptr %5, align 4, !tbaa !21
  %30 = sext i32 %29 to i64
  %31 = load i64, ptr %4, align 8, !tbaa !24
  %32 = add i64 %30, %31
  %33 = add i64 %32, 256
  %34 = mul i64 %33, 2
  %35 = call i64 @align_round_up(i64 noundef %34)
  %36 = trunc i64 %35 to i32
  store i32 %36, ptr %7, align 4, !tbaa !21
  call void @llvm.lifetime.start.p0(i64 8, ptr %8) #7
  %37 = load ptr, ptr %6, align 8, !tbaa !100
  %38 = load i32, ptr %7, align 4, !tbaa !21
  %39 = sext i32 %38 to i64
  %40 = call ptr @jv_mem_realloc(ptr noundef %37, i64 noundef %39)
  store ptr %40, ptr %8, align 8, !tbaa !100
  %41 = load ptr, ptr %8, align 8, !tbaa !100
  %42 = load i32, ptr %7, align 4, !tbaa !21
  %43 = load i32, ptr %5, align 4, !tbaa !21
  %44 = sub nsw i32 %42, %43
  %45 = sext i32 %44 to i64
  %46 = getelementptr inbounds i8, ptr %41, i64 %45
  %47 = load ptr, ptr %8, align 8, !tbaa !100
  %48 = load i32, ptr %5, align 4, !tbaa !21
  %49 = sext i32 %48 to i64
  call void @llvm.memmove.p0.p0.i64(ptr align 1 %46, ptr align 1 %47, i64 %49, i1 false)
  %50 = load ptr, ptr %8, align 8, !tbaa !100
  %51 = load i32, ptr %7, align 4, !tbaa !21
  %52 = sext i32 %51 to i64
  %53 = getelementptr inbounds i8, ptr %50, i64 %52
  %54 = load ptr, ptr %3, align 8, !tbaa !22
  %55 = getelementptr inbounds nuw %struct.stack, ptr %54, i32 0, i32 0
  store ptr %53, ptr %55, align 8, !tbaa !28
  %56 = load i32, ptr %7, align 4, !tbaa !21
  %57 = sub nsw i32 %56, 8
  %58 = sub nsw i32 0, %57
  %59 = load ptr, ptr %3, align 8, !tbaa !22
  %60 = getelementptr inbounds nuw %struct.stack, ptr %59, i32 0, i32 1
  store i32 %58, ptr %60, align 8, !tbaa !27
  call void @llvm.lifetime.end.p0(i64 8, ptr %8) #7
  call void @llvm.lifetime.end.p0(i64 4, ptr %7) #7
  call void @llvm.lifetime.end.p0(i64 8, ptr %6) #7
  call void @llvm.lifetime.end.p0(i64 4, ptr %5) #7
  ret void
}

; Function Attrs: nounwind uwtable
define internal i64 @align_round_up(i64 noundef %0) #0 {
  %2 = alloca i64, align 8
  store i64 %0, ptr %2, align 8, !tbaa !24
  %3 = load i64, ptr %2, align 8, !tbaa !24
  %4 = add i64 %3, 7
  %5 = udiv i64 %4, 8
  %6 = mul i64 %5, 8
  ret i64 %6
}

; Function Attrs: nounwind uwtable
define internal ptr @stack_block(ptr noundef %0, i32 noundef %1) #0 {
  %3 = alloca ptr, align 8
  %4 = alloca i32, align 4
  store ptr %0, ptr %3, align 8, !tbaa !22
  store i32 %1, ptr %4, align 4, !tbaa !21
  %5 = load ptr, ptr %3, align 8, !tbaa !22
  %6 = getelementptr inbounds nuw %struct.stack, ptr %5, i32 0, i32 0
  %7 = load ptr, ptr %6, align 8, !tbaa !28
  %8 = load i32, ptr %4, align 4, !tbaa !21
  %9 = sext i32 %8 to i64
  %10 = getelementptr inbounds i8, ptr %7, i64 %9
  ret ptr %10
}

; Function Attrs: nounwind uwtable
define internal i32 @stack_push_block(ptr noundef %0, i32 noundef %1, i64 noundef %2) #0 {
  %4 = alloca ptr, align 8
  %5 = alloca i32, align 4
  %6 = alloca i64, align 8
  %7 = alloca i32, align 4
  %8 = alloca i32, align 4
  store ptr %0, ptr %4, align 8, !tbaa !22
  store i32 %1, ptr %5, align 4, !tbaa !21
  store i64 %2, ptr %6, align 8, !tbaa !24
  call void @llvm.lifetime.start.p0(i64 4, ptr %7) #7
  %9 = load i64, ptr %6, align 8, !tbaa !24
  %10 = call i64 @align_round_up(i64 noundef %9)
  %11 = add i64 %10, 8
  %12 = trunc i64 %11 to i32
  store i32 %12, ptr %7, align 4, !tbaa !21
  call void @llvm.lifetime.start.p0(i64 4, ptr %8) #7
  %13 = load ptr, ptr %4, align 8, !tbaa !22
  %14 = getelementptr inbounds nuw %struct.stack, ptr %13, i32 0, i32 2
  %15 = load i32, ptr %14, align 4, !tbaa !26
  %16 = load i32, ptr %7, align 4, !tbaa !21
  %17 = sub nsw i32 %15, %16
  store i32 %17, ptr %8, align 4, !tbaa !21
  %18 = load i32, ptr %8, align 4, !tbaa !21
  %19 = load ptr, ptr %4, align 8, !tbaa !22
  %20 = getelementptr inbounds nuw %struct.stack, ptr %19, i32 0, i32 1
  %21 = load i32, ptr %20, align 8, !tbaa !27
  %22 = icmp slt i32 %18, %21
  br i1 %22, label %23, label %27

23:                                               ; preds = %3
  %24 = load ptr, ptr %4, align 8, !tbaa !22
  %25 = load i32, ptr %7, align 4, !tbaa !21
  %26 = sext i32 %25 to i64
  call void @stack_reallocate(ptr noundef %24, i64 noundef %26)
  br label %27

27:                                               ; preds = %23, %3
  %28 = load i32, ptr %8, align 4, !tbaa !21
  %29 = load ptr, ptr %4, align 8, !tbaa !22
  %30 = getelementptr inbounds nuw %struct.stack, ptr %29, i32 0, i32 2
  store i32 %28, ptr %30, align 4, !tbaa !26
  %31 = load i32, ptr %5, align 4, !tbaa !21
  %32 = load ptr, ptr %4, align 8, !tbaa !22
  %33 = load i32, ptr %8, align 4, !tbaa !21
  %34 = call ptr @stack_block_next(ptr noundef %32, i32 noundef %33)
  store i32 %31, ptr %34, align 4, !tbaa !21
  %35 = load i32, ptr %8, align 4, !tbaa !21
  call void @llvm.lifetime.end.p0(i64 4, ptr %8) #7
  call void @llvm.lifetime.end.p0(i64 4, ptr %7) #7
  ret i32 %35
}

; Function Attrs: nounwind uwtable
define dso_local void @stack_save(ptr noundef %0, ptr noundef %1, i64 %2) #0 {
  %4 = alloca %struct.stack_pos, align 4
  %5 = alloca ptr, align 8
  %6 = alloca ptr, align 8
  %7 = alloca ptr, align 8
  %8 = alloca %struct.jv, align 8
  %9 = alloca %struct.jv, align 8
  store i64 %2, ptr %4, align 4
  store ptr %0, ptr %5, align 8, !tbaa !4
  store ptr %1, ptr %6, align 8, !tbaa !33
  %10 = load ptr, ptr %5, align 8, !tbaa !4
  %11 = getelementptr inbounds nuw %struct.jq_state, ptr %10, i32 0, i32 6
  %12 = load ptr, ptr %5, align 8, !tbaa !4
  %13 = getelementptr inbounds nuw %struct.jq_state, ptr %12, i32 0, i32 9
  %14 = load i32, ptr %13, align 8, !tbaa !35
  %15 = call i32 @stack_push_block(ptr noundef %11, i32 noundef %14, i64 noundef 40)
  %16 = load ptr, ptr %5, align 8, !tbaa !4
  %17 = getelementptr inbounds nuw %struct.jq_state, ptr %16, i32 0, i32 9
  store i32 %15, ptr %17, align 8, !tbaa !35
  call void @llvm.lifetime.start.p0(i64 8, ptr %7) #7
  %18 = load ptr, ptr %5, align 8, !tbaa !4
  %19 = getelementptr inbounds nuw %struct.jq_state, ptr %18, i32 0, i32 6
  %20 = load ptr, ptr %5, align 8, !tbaa !4
  %21 = getelementptr inbounds nuw %struct.jq_state, ptr %20, i32 0, i32 9
  %22 = load i32, ptr %21, align 8, !tbaa !35
  %23 = call ptr @stack_block(ptr noundef %19, i32 noundef %22)
  store ptr %23, ptr %7, align 8, !tbaa !36
  %24 = load ptr, ptr %5, align 8, !tbaa !4
  %25 = getelementptr inbounds nuw %struct.jq_state, ptr %24, i32 0, i32 8
  %26 = load i32, ptr %25, align 4, !tbaa !9
  %27 = load ptr, ptr %7, align 8, !tbaa !36
  %28 = getelementptr inbounds nuw %struct.forkpoint, ptr %27, i32 0, i32 0
  store i32 %26, ptr %28, align 8, !tbaa !38
  %29 = load ptr, ptr %5, align 8, !tbaa !4
  %30 = getelementptr inbounds nuw %struct.jq_state, ptr %29, i32 0, i32 7
  %31 = load i32, ptr %30, align 8, !tbaa !31
  %32 = load ptr, ptr %7, align 8, !tbaa !36
  %33 = getelementptr inbounds nuw %struct.forkpoint, ptr %32, i32 0, i32 1
  store i32 %31, ptr %33, align 4, !tbaa !40
  %34 = load ptr, ptr %5, align 8, !tbaa !4
  %35 = getelementptr inbounds nuw %struct.jq_state, ptr %34, i32 0, i32 10
  %36 = getelementptr inbounds nuw { i64, ptr }, ptr %35, i32 0, i32 0
  %37 = load i64, ptr %36, align 8
  %38 = getelementptr inbounds nuw { i64, ptr }, ptr %35, i32 0, i32 1
  %39 = load ptr, ptr %38, align 8
  %40 = call i32 @jv_get_kind(i64 %37, ptr %39)
  %41 = icmp eq i32 %40, 6
  br i1 %41, label %42, label %59

42:                                               ; preds = %3
  %43 = load ptr, ptr %5, align 8, !tbaa !4
  %44 = getelementptr inbounds nuw %struct.jq_state, ptr %43, i32 0, i32 10
  %45 = getelementptr inbounds nuw { i64, ptr }, ptr %44, i32 0, i32 0
  %46 = load i64, ptr %45, align 8
  %47 = getelementptr inbounds nuw { i64, ptr }, ptr %44, i32 0, i32 1
  %48 = load ptr, ptr %47, align 8
  %49 = call { i64, ptr } @jv_copy(i64 %46, ptr %48)
  %50 = getelementptr inbounds nuw { i64, ptr }, ptr %8, i32 0, i32 0
  %51 = extractvalue { i64, ptr } %49, 0
  store i64 %51, ptr %50, align 8
  %52 = getelementptr inbounds nuw { i64, ptr }, ptr %8, i32 0, i32 1
  %53 = extractvalue { i64, ptr } %49, 1
  store ptr %53, ptr %52, align 8
  %54 = getelementptr inbounds nuw { i64, ptr }, ptr %8, i32 0, i32 0
  %55 = load i64, ptr %54, align 8
  %56 = getelementptr inbounds nuw { i64, ptr }, ptr %8, i32 0, i32 1
  %57 = load ptr, ptr %56, align 8
  %58 = call i32 @jv_array_length(i64 %55, ptr %57)
  br label %60

59:                                               ; preds = %3
  br label %60

60:                                               ; preds = %59, %42
  %61 = phi i32 [ %58, %42 ], [ 0, %59 ]
  %62 = load ptr, ptr %7, align 8, !tbaa !36
  %63 = getelementptr inbounds nuw %struct.forkpoint, ptr %62, i32 0, i32 2
  store i32 %61, ptr %63, align 8, !tbaa !41
  %64 = load ptr, ptr %7, align 8, !tbaa !36
  %65 = getelementptr inbounds nuw %struct.forkpoint, ptr %64, i32 0, i32 4
  call void @llvm.lifetime.start.p0(i64 16, ptr %9) #7
  %66 = load ptr, ptr %5, align 8, !tbaa !4
  %67 = getelementptr inbounds nuw %struct.jq_state, ptr %66, i32 0, i32 11
  %68 = getelementptr inbounds nuw { i64, ptr }, ptr %67, i32 0, i32 0
  %69 = load i64, ptr %68, align 8
  %70 = getelementptr inbounds nuw { i64, ptr }, ptr %67, i32 0, i32 1
  %71 = load ptr, ptr %70, align 8
  %72 = call { i64, ptr } @jv_copy(i64 %69, ptr %71)
  %73 = getelementptr inbounds nuw { i64, ptr }, ptr %9, i32 0, i32 0
  %74 = extractvalue { i64, ptr } %72, 0
  store i64 %74, ptr %73, align 8
  %75 = getelementptr inbounds nuw { i64, ptr }, ptr %9, i32 0, i32 1
  %76 = extractvalue { i64, ptr } %72, 1
  store ptr %76, ptr %75, align 8
  call void @llvm.memcpy.p0.p0.i64(ptr align 8 %65, ptr align 8 %9, i64 16, i1 false), !tbaa.struct !18
  call void @llvm.lifetime.end.p0(i64 16, ptr %9) #7
  %77 = load ptr, ptr %5, align 8, !tbaa !4
  %78 = getelementptr inbounds nuw %struct.jq_state, ptr %77, i32 0, i32 12
  %79 = load i32, ptr %78, align 8, !tbaa !42
  %80 = load ptr, ptr %7, align 8, !tbaa !36
  %81 = getelementptr inbounds nuw %struct.forkpoint, ptr %80, i32 0, i32 3
  store i32 %79, ptr %81, align 4, !tbaa !43
  %82 = load ptr, ptr %6, align 8, !tbaa !33
  %83 = load ptr, ptr %7, align 8, !tbaa !36
  %84 = getelementptr inbounds nuw %struct.forkpoint, ptr %83, i32 0, i32 5
  store ptr %82, ptr %84, align 8, !tbaa !44
  %85 = getelementptr inbounds nuw %struct.stack_pos, ptr %4, i32 0, i32 0
  %86 = load i32, ptr %85, align 4, !tbaa !29
  %87 = load ptr, ptr %5, align 8, !tbaa !4
  %88 = getelementptr inbounds nuw %struct.jq_state, ptr %87, i32 0, i32 8
  store i32 %86, ptr %88, align 4, !tbaa !9
  %89 = getelementptr inbounds nuw %struct.stack_pos, ptr %4, i32 0, i32 1
  %90 = load i32, ptr %89, align 4, !tbaa !32
  %91 = load ptr, ptr %5, align 8, !tbaa !4
  %92 = getelementptr inbounds nuw %struct.jq_state, ptr %91, i32 0, i32 7
  store i32 %90, ptr %92, align 8, !tbaa !31
  call void @llvm.lifetime.end.p0(i64 8, ptr %7) #7
  ret void
}