; Function Attrs: nounwind uwtable
define dso_local void @stack_save(ptr noundef captures(none) %0, ptr noundef %1, i64 %2) local_unnamed_addr #0 {
  %4 = getelementptr inbounds nuw i8, ptr %0, i64 56
  %5 = getelementptr inbounds nuw i8, ptr %0, i64 80
  %6 = load i32, ptr %5, align 8, !tbaa !21
  %7 = getelementptr inbounds nuw i8, ptr %0, i64 68
  %8 = load i32, ptr %7, align 4, !tbaa !15
  %9 = add nsw i32 %8, -48
  %10 = getelementptr inbounds nuw i8, ptr %0, i64 64
  %11 = load i32, ptr %10, align 8, !tbaa !16
  %12 = icmp slt i32 %9, %11
  %.val.pre.i = load ptr, ptr %4, align 8, !tbaa !17
  br i1 %12, label %13, label %stack_push_block.exit

13:                                               ; preds = %3
  %14 = sub i32 8, %11
  %.not.i.i = icmp eq ptr %.val.pre.i, null
  %15 = sext i32 %14 to i64
  %16 = sub nsw i64 0, %15
  %17 = getelementptr inbounds i8, ptr %.val.pre.i, i64 %16
  %18 = select i1 %.not.i.i, ptr null, ptr %17
  %19 = shl nsw i64 %15, 1
  %20 = add nsw i64 %19, 615
  %21 = and i64 %20, -8
  %22 = trunc i64 %21 to i32
  %sext.i.i = shl i64 %21, 32
  %23 = ashr exact i64 %sext.i.i, 32
  %24 = tail call ptr @jv_mem_realloc(ptr noundef %18, i64 noundef %23) #13
  %25 = sub nsw i32 %22, %14
  %26 = sext i32 %25 to i64
  %27 = getelementptr inbounds i8, ptr %24, i64 %26
  tail call void @llvm.memmove.p0.p0.i64(ptr align 1 %27, ptr align 1 %24, i64 %15, i1 false)
  %28 = getelementptr inbounds i8, ptr %24, i64 %23
  store ptr %28, ptr %4, align 8, !tbaa !17
  %29 = sub nsw i32 8, %22
  store i32 %29, ptr %10, align 8, !tbaa !16
  br label %stack_push_block.exit

stack_push_block.exit:                            ; preds = %3, %13
  %.val = phi ptr [ %28, %13 ], [ %.val.pre.i, %3 ]
  store i32 %9, ptr %7, align 4, !tbaa !15
  %30 = sext i32 %9 to i64
  %31 = getelementptr inbounds i8, ptr %.val, i64 %30
  %32 = getelementptr inbounds i8, ptr %31, i64 -4
  store i32 %6, ptr %32, align 4, !tbaa !18
  store i32 %9, ptr %5, align 8, !tbaa !21
  %33 = getelementptr inbounds nuw i8, ptr %0, i64 76
  %34 = load i32, ptr %33, align 4, !tbaa !4
  store i32 %34, ptr %31, align 8, !tbaa !22
  %35 = getelementptr inbounds nuw i8, ptr %0, i64 72
  %36 = load i32, ptr %35, align 8, !tbaa !20
  %37 = getelementptr inbounds nuw i8, ptr %31, i64 4
  store i32 %36, ptr %37, align 4, !tbaa !25
  %38 = getelementptr inbounds nuw i8, ptr %0, i64 88
  %39 = load i64, ptr %38, align 8
  %40 = getelementptr inbounds nuw i8, ptr %0, i64 96
  %41 = load ptr, ptr %40, align 8
  %42 = tail call i32 @jv_get_kind(i64 %39, ptr %41) #13
  %43 = icmp eq i32 %42, 6
  br i1 %43, label %44, label %51

44:                                               ; preds = %stack_push_block.exit
  %45 = load i64, ptr %38, align 8
  %46 = load ptr, ptr %40, align 8
  %47 = tail call { i64, ptr } @jv_copy(i64 %45, ptr %46) #13
  %48 = extractvalue { i64, ptr } %47, 0
  %49 = extractvalue { i64, ptr } %47, 1
  %50 = tail call i32 @jv_array_length(i64 %48, ptr %49) #13
  br label %51

51:                                               ; preds = %stack_push_block.exit, %44
  %52 = phi i32 [ %50, %44 ], [ 0, %stack_push_block.exit ]
  %.sroa.222.0.extract.shift = lshr i64 %2, 32
  %.sroa.222.0.extract.trunc = trunc nuw i64 %.sroa.222.0.extract.shift to i32
  %.sroa.021.0.extract.trunc = trunc i64 %2 to i32
  %53 = getelementptr inbounds nuw i8, ptr %31, i64 8
  store i32 %52, ptr %53, align 8, !tbaa !26
  %54 = getelementptr inbounds nuw i8, ptr %31, i64 16
  %55 = getelementptr inbounds nuw i8, ptr %0, i64 104
  %56 = load i64, ptr %55, align 8
  %57 = getelementptr inbounds nuw i8, ptr %0, i64 112
  %58 = load ptr, ptr %57, align 8
  %59 = tail call { i64, ptr } @jv_copy(i64 %56, ptr %58) #13
  %60 = extractvalue { i64, ptr } %59, 0
  %61 = extractvalue { i64, ptr } %59, 1
  store i64 %60, ptr %54, align 8
  %.sroa.4.0..sroa_idx = getelementptr inbounds nuw i8, ptr %31, i64 24
  store ptr %61, ptr %.sroa.4.0..sroa_idx, align 8, !tbaa !19
  %62 = getelementptr inbounds nuw i8, ptr %0, i64 120
  %63 = load i32, ptr %62, align 8, !tbaa !27
  %64 = getelementptr inbounds nuw i8, ptr %31, i64 12
  store i32 %63, ptr %64, align 4, !tbaa !28
  %65 = getelementptr inbounds nuw i8, ptr %31, i64 32
  store ptr %1, ptr %65, align 8, !tbaa !29
  store i32 %.sroa.021.0.extract.trunc, ptr %33, align 4, !tbaa !4
  store i32 %.sroa.222.0.extract.trunc, ptr %35, align 8, !tbaa !20
  ret void
}